target datalayout = "e-m:e-p270:32:32-p271:32:32-p272:64:64-i64:64-i128:128-f80:128-n8:16:32:64-S128"
target triple = "x86_64-pc-linux-gnu"

%"class.pbrt::Shape" = type { %"class.pbrt::TaggedPointer.10" }
%"class.pbrt::TaggedPointer.10" = type { i64 }
%"class.pbrt::Material" = type { %"class.pbrt::TaggedPointer.11" }
%"class.pbrt::TaggedPointer.11" = type { i64 }
%class.anon.45 = type { ptr, ptr }
%"class.pbrt::SimplePrimitive" = type { %"class.pbrt::Shape", %"class.pbrt::Material" }

; Function Attrs: mustprogress nounwind uwtable
define linkonce_odr dso_local noundef i32 @_ZNK4pbrt13TaggedPointerIJNS_6SphereENS_8CylinderENS_4DiskENS_8TriangleENS_13BilinearPatchENS_5CurveEEE3TagEv(ptr noundef nonnull align 8 dereferenceable(8) %0) #8 comdat align 2 {
  %2 = alloca ptr, align 8
  store ptr %0, ptr %2, align 8, !tbaa !143
  %3 = load ptr, ptr %2, align 8
  %4 = getelementptr inbounds nuw %"class.pbrt::TaggedPointer.10", ptr %3, i32 0, i32 0
  %5 = load i64, ptr %4, align 8, !tbaa !145
  %6 = and i64 %5, -144115188075855872
  %7 = lshr i64 %6, 57
  %8 = trunc i64 %7 to i32
  ret i32 %8
}

; Function Attrs: mustprogress nounwind uwtable
define linkonce_odr dso_local noundef ptr @_ZNK4pbrt13TaggedPointerIJNS_6SphereENS_8CylinderENS_4DiskENS_8TriangleENS_13BilinearPatchENS_5CurveEEE3ptrEv(ptr noundef nonnull align 8 dereferenceable(8) %0) #8 comdat align 2 {
  %2 = alloca ptr, align 8
  store ptr %0, ptr %2, align 8, !tbaa !143
  %3 = load ptr, ptr %2, align 8
  %4 = getelementptr inbounds nuw %"class.pbrt::TaggedPointer.10", ptr %3, i32 0, i32 0
  %5 = load i64, ptr %4, align 8, !tbaa !145
  %6 = and i64 %5, 144115188075855871
  %7 = inttoptr i64 %6 to ptr
  ret ptr %7
}

; Function Attrs: mustprogress uwtable
define linkonce_odr dso_local noundef zeroext i1 @_ZNK4pbrt13TaggedPointerIJNS_6SphereENS_8CylinderENS_4DiskENS_8TriangleENS_13BilinearPatchENS_5CurveEEE8DispatchIRZNKS_5Shape10IntersectPERKNS_3RayEfEUlT_E_EEDcOSD_(ptr noundef nonnull align 8 dereferenceable(8) %0, ptr noundef nonnull align 8 dereferenceable(16) %1) #1 comdat align 2 {
  %3 = alloca ptr, align 8
  %4 = alloca ptr, align 8
  store ptr %0, ptr %3, align 8, !tbaa !143
  store ptr %1, ptr %4, align 8, !tbaa !13
  %5 = load ptr, ptr %3, align 8
  br label %6

6:                                                ; preds = %2
  br label %7

7:                                                ; preds = %6
  %8 = load ptr, ptr %4, align 8, !tbaa !13
  %9 = call noundef ptr @_ZNK4pbrt13TaggedPointerIJNS_6SphereENS_8CylinderENS_4DiskENS_8TriangleENS_13BilinearPatchENS_5CurveEEE3ptrEv(ptr noundef nonnull align 8 dereferenceable(8) %5)
  %10 = call noundef i32 @_ZNK4pbrt13TaggedPointerIJNS_6SphereENS_8CylinderENS_4DiskENS_8TriangleENS_13BilinearPatchENS_5CurveEEE3TagEv(ptr noundef nonnull align 8 dereferenceable(8) %5)
  %11 = sub i32 %10, 1
  %12 = call noundef zeroext i1 @_ZN4pbrt6detail8DispatchIRZNKS_5Shape10IntersectPERKNS_3RayEfEUlT_E_bNS_6SphereENS_8CylinderENS_4DiskENS_8TriangleENS_13BilinearPatchENS_5CurveEEET0_OS6_PKvi(ptr noundef nonnull align 8 dereferenceable(16) %8, ptr noundef %9, i32 noundef %11)
  ret i1 %12
}

; Function Attrs: inlinehint mustprogress uwtable
define linkonce_odr dso_local noundef zeroext i1 @_ZNK4pbrt5Shape10IntersectPERKNS_3RayEf(ptr noundef nonnull align 8 dereferenceable(8) %0, ptr noundef nonnull align 8 dereferenceable(40) %1, float noundef %2) #5 comdat align 2 {
  %4 = alloca ptr, align 8
  %5 = alloca ptr, align 8
  %6 = alloca float, align 4
  %7 = alloca %class.anon.45, align 8
  store ptr %0, ptr %4, align 8, !tbaa !24
  store ptr %1, ptr %5, align 8, !tbaa !18
  store float %2, ptr %6, align 4, !tbaa !9
  %8 = load ptr, ptr %4, align 8
  call void @llvm.lifetime.start.p0(i64 16, ptr %7) #20
  %9 = getelementptr inbounds nuw %class.anon.45, ptr %7, i32 0, i32 0
  %10 = load ptr, ptr %5, align 8, !tbaa !18
  store ptr %10, ptr %9, align 8, !tbaa !18
  %11 = getelementptr inbounds nuw %class.anon.45, ptr %7, i32 0, i32 1
  store ptr %6, ptr %11, align 8, !tbaa !20
  %12 = call noundef zeroext i1 @_ZNK4pbrt13TaggedPointerIJNS_6SphereENS_8CylinderENS_4DiskENS_8TriangleENS_13BilinearPatchENS_5CurveEEE8DispatchIRZNKS_5Shape10IntersectPERKNS_3RayEfEUlT_E_EEDcOSD_(ptr noundef nonnull align 8 dereferenceable(8) %8, ptr noundef nonnull align 8 dereferenceable(16) %7)
  call void @llvm.lifetime.end.p0(i64 16, ptr %7) #20
  ret i1 %12
}

; Function Attrs: mustprogress uwtable
define dso_local noundef zeroext i1 @_ZNK4pbrt15SimplePrimitive10IntersectPERKNS_3RayEf(ptr noundef nonnull align 8 dereferenceable(16) %0, ptr noundef nonnull align 8 dereferenceable(40) %1, float noundef %2) #1 align 2 {
  %4 = alloca ptr, align 8
  %5 = alloca ptr, align 8
  %6 = alloca float, align 4
  store ptr %0, ptr %4, align 8, !tbaa !99
  store ptr %1, ptr %5, align 8, !tbaa !18
  store float %2, ptr %6, align 4, !tbaa !9
  %7 = load ptr, ptr %4, align 8
  %8 = getelementptr inbounds nuw %"class.pbrt::SimplePrimitive", ptr %7, i32 0, i32 0
  %9 = load ptr, ptr %5, align 8, !tbaa !18
  %10 = load float, ptr %6, align 4, !tbaa !9
  %11 = call noundef zeroext i1 @_ZNK4pbrt5Shape10IntersectPERKNS_3RayEf(ptr noundef nonnull align 8 dereferenceable(8) %8, ptr noundef nonnull align 8 dereferenceable(40) %9, float noundef %10)
  ret i1 %11
}